; Function Attrs: mustprogress uwtable
define void @_ZN3g2o11OdomConvert17convertToVelocityERKNS_17MotionMeasurementE(ptr dead_on_unwind noalias writable sret(%"class.g2o::VelocityMeasurement") align 16 %0, ptr noundef nonnull readonly align 8 captures(none) dereferenceable(32) %1) local_unnamed_addr #3 align 2 personality ptr @__gxx_personality_v0 {
  %3 = getelementptr inbounds nuw i8, ptr %1, i64 16
  %4 = load double, ptr %3, align 8, !tbaa !3
  %5 = tail call double @llvm.fabs.f64(double %4)
  %6 = fcmp ogt double %5, 0x3E7AD7F29ABCAF48
  br i1 %6, label %7, label %26

7:                                                ; preds = %2
  %8 = load double, ptr %1, align 8, !tbaa !3
  %9 = getelementptr inbounds nuw i8, ptr %1, i64 8
  %10 = load double, ptr %9, align 8, !tbaa !3
  %11 = tail call double @hypot(double noundef %8, double noundef %10) #9, !tbaa !21
  %12 = fmul double %4, 5.000000e-01
  %13 = tail call double @sin(double noundef %12) #9, !tbaa !21
  %14 = fmul double %13, 2.000000e+00
  %15 = fdiv double %11, %14
  %16 = getelementptr inbounds nuw i8, ptr %1, i64 24
  %17 = load double, ptr %16, align 8, !tbaa !13
  %18 = tail call double @llvm.fabs.f64(double %17)
  %19 = fcmp ogt double %18, 0x3E7AD7F29ABCAF48
  %20 = fdiv double %4, %17
  %.024 = select i1 %19, double %20, double 0.000000e+00
  %21 = fmul double %15, 2.000000e+00
  %22 = fneg double %.024
  %23 = tail call double @llvm.fmuladd.f64(double %21, double %.024, double %22)
  %24 = fmul double %23, 5.000000e-01
  %25 = fadd double %.024, %24
  tail call void @_ZN3g2o19VelocityMeasurementC1Eddd(ptr noundef nonnull align 16 dereferenceable(24) %0, double noundef %24, double noundef %25, double noundef %17)
  br label %38

26:                                               ; preds = %2
  %27 = getelementptr inbounds nuw i8, ptr %1, i64 24
  %28 = load double, ptr %27, align 8, !tbaa !13
  %29 = tail call double @llvm.fabs.f64(double %28)
  %30 = fcmp ogt double %29, 0x3E7AD7F29ABCAF48
  br i1 %30, label %31, label %37

31:                                               ; preds = %26
  %32 = load double, ptr %1, align 8, !tbaa !3
  %33 = getelementptr inbounds nuw i8, ptr %1, i64 8
  %34 = load double, ptr %33, align 8, !tbaa !3
  %35 = tail call double @hypot(double noundef %32, double noundef %34) #9, !tbaa !21
  %36 = fdiv double %35, %28
  br label %37

37:                                               ; preds = %26, %31
  %.0 = phi double [ %36, %31 ], [ 0.000000e+00, %26 ]
  tail call void @_ZN3g2o19VelocityMeasurementC1Eddd(ptr noundef nonnull align 16 dereferenceable(24) %0, double noundef %.0, double noundef %.0, double noundef %28)
  br label %38

38:                                               ; preds = %37, %7
  ret void
}